(lp0
S'/home/akollaki/Documents/groupProject/gazebo/catkin_ws/src/teleLoc/scripts/dataset2/officeBoss_2.jpg'
p1
aS'/home/akollaki/Documents/groupProject/gazebo/catkin_ws/src/teleLoc/scripts/dataset2/office3_3.jpg'
p2
aS'/home/akollaki/Documents/groupProject/gazebo/catkin_ws/src/teleLoc/scripts/dataset2/officeBoss_3.jpg'
p3
aS'/home/akollaki/Documents/groupProject/gazebo/catkin_ws/src/teleLoc/scripts/dataset2/office4_11.jpg'
p4
aS'/home/akollaki/Documents/groupProject/gazebo/catkin_ws/src/teleLoc/scripts/dataset2/office3_12.jpg'
p5
aS'/home/akollaki/Documents/groupProject/gazebo/catkin_ws/src/teleLoc/scripts/dataset2/office2_7.jpg'
p6
aS'/home/akollaki/Documents/groupProject/gazebo/catkin_ws/src/teleLoc/scripts/dataset2/office4_8.jpg'
p7
aS'/home/akollaki/Documents/groupProject/gazebo/catkin_ws/src/teleLoc/scripts/dataset2/officeBoss_4.jpg'
p8
aS'/home/akollaki/Documents/groupProject/gazebo/catkin_ws/src/teleLoc/scripts/dataset2/office4_13.jpg'
p9
aS'/home/akollaki/Documents/groupProject/gazebo/catkin_ws/src/teleLoc/scripts/dataset2/livingRoom_12.jpg'
p10
aS'/home/akollaki/Documents/groupProject/gazebo/catkin_ws/src/teleLoc/scripts/dataset2/office3_11.jpg'
p11
aS'/home/akollaki/Documents/groupProject/gazebo/catkin_ws/src/teleLoc/scripts/dataset2/livingRoom_1.jpg'
p12
aS'/home/akollaki/Documents/groupProject/gazebo/catkin_ws/src/teleLoc/scripts/dataset2/office4_6.jpg'
p13
aS'/home/akollaki/Documents/groupProject/gazebo/catkin_ws/src/teleLoc/scripts/dataset2/office2_11.jpg'
p14
aS'/home/akollaki/Documents/groupProject/gazebo/catkin_ws/src/teleLoc/scripts/dataset2/livingRoom_9.jpg'
p15
aS'/home/akollaki/Documents/groupProject/gazebo/catkin_ws/src/teleLoc/scripts/dataset2/office3_8.jpg'
p16
aS'/home/akollaki/Documents/groupProject/gazebo/catkin_ws/src/teleLoc/scripts/dataset2/office4_7.jpg'
p17
aS'/home/akollaki/Documents/groupProject/gazebo/catkin_ws/src/teleLoc/scripts/dataset2/office2_1.jpg'
p18
aS'/home/akollaki/Documents/groupProject/gazebo/catkin_ws/src/teleLoc/scripts/dataset2/livingRoom_3.jpg'
p19
aS'/home/akollaki/Documents/groupProject/gazebo/catkin_ws/src/teleLoc/scripts/dataset2/office4_2.jpg'
p20
aS'/home/akollaki/Documents/groupProject/gazebo/catkin_ws/src/teleLoc/scripts/dataset2/livingRoom_7.jpg'
p21
aS'/home/akollaki/Documents/groupProject/gazebo/catkin_ws/src/teleLoc/scripts/dataset2/officeBoss_11.jpg'
p22
aS'/home/akollaki/Documents/groupProject/gazebo/catkin_ws/src/teleLoc/scripts/dataset2/office4_10.jpg'
p23
aS'/home/akollaki/Documents/groupProject/gazebo/catkin_ws/src/teleLoc/scripts/dataset2/office2_4.jpg'
p24
aS'/home/akollaki/Documents/groupProject/gazebo/catkin_ws/src/teleLoc/scripts/dataset2/office4_5.jpg'
p25
aS'/home/akollaki/Documents/groupProject/gazebo/catkin_ws/src/teleLoc/scripts/dataset2/livingRoom_11.jpg'
p26
aS'/home/akollaki/Documents/groupProject/gazebo/catkin_ws/src/teleLoc/scripts/dataset2/office3_9.jpg'
p27
aS'/home/akollaki/Documents/groupProject/gazebo/catkin_ws/src/teleLoc/scripts/dataset2/officeBoss_1.jpg'
p28
aS'/home/akollaki/Documents/groupProject/gazebo/catkin_ws/src/teleLoc/scripts/dataset2/officeBoss_8.jpg'
p29
aS'/home/akollaki/Documents/groupProject/gazebo/catkin_ws/src/teleLoc/scripts/dataset2/office2_10.jpg'
p30
aS'/home/akollaki/Documents/groupProject/gazebo/catkin_ws/src/teleLoc/scripts/dataset2/office2_3.jpg'
p31
aS'/home/akollaki/Documents/groupProject/gazebo/catkin_ws/src/teleLoc/scripts/dataset2/livingRoom_8.jpg'
p32
aS'/home/akollaki/Documents/groupProject/gazebo/catkin_ws/src/teleLoc/scripts/dataset2/officeBoss_6.jpg'
p33
aS'/home/akollaki/Documents/groupProject/gazebo/catkin_ws/src/teleLoc/scripts/dataset2/office2_5.jpg'
p34
aS'/home/akollaki/Documents/groupProject/gazebo/catkin_ws/src/teleLoc/scripts/dataset2/office3_2.jpg'
p35
aS'/home/akollaki/Documents/groupProject/gazebo/catkin_ws/src/teleLoc/scripts/dataset2/officeBoss_7.jpg'
p36
aS'/home/akollaki/Documents/groupProject/gazebo/catkin_ws/src/teleLoc/scripts/dataset2/livingRoom_4.jpg'
p37
aS'/home/akollaki/Documents/groupProject/gazebo/catkin_ws/src/teleLoc/scripts/dataset2/office4_3.jpg'
p38
aS'/home/akollaki/Documents/groupProject/gazebo/catkin_ws/src/teleLoc/scripts/dataset2/livingRoom_5.jpg'
p39
aS'/home/akollaki/Documents/groupProject/gazebo/catkin_ws/src/teleLoc/scripts/dataset2/office3_6.jpg'
p40
aS'/home/akollaki/Documents/groupProject/gazebo/catkin_ws/src/teleLoc/scripts/dataset2/office2_6.jpg'
p41
aS'/home/akollaki/Documents/groupProject/gazebo/catkin_ws/src/teleLoc/scripts/dataset2/office3_1.jpg'
p42
aS'/home/akollaki/Documents/groupProject/gazebo/catkin_ws/src/teleLoc/scripts/dataset2/livingRoom_10.jpg'
p43
aS'/home/akollaki/Documents/groupProject/gazebo/catkin_ws/src/teleLoc/scripts/dataset2/officeBoss_10.jpg'
p44
aS'/home/akollaki/Documents/groupProject/gazebo/catkin_ws/src/teleLoc/scripts/dataset2/office3_5.jpg'
p45
aS'/home/akollaki/Documents/groupProject/gazebo/catkin_ws/src/teleLoc/scripts/dataset2/office4_4.jpg'
p46
aS'/home/akollaki/Documents/groupProject/gazebo/catkin_ws/src/teleLoc/scripts/dataset2/office3_4.jpg'
p47
aS'/home/akollaki/Documents/groupProject/gazebo/catkin_ws/src/teleLoc/scripts/dataset2/office4_9.jpg'
p48
aS'/home/akollaki/Documents/groupProject/gazebo/catkin_ws/src/teleLoc/scripts/dataset2/office2_8.jpg'
p49
aS'/home/akollaki/Documents/groupProject/gazebo/catkin_ws/src/teleLoc/scripts/dataset2/office3_7.jpg'
p50
aS'/home/akollaki/Documents/groupProject/gazebo/catkin_ws/src/teleLoc/scripts/dataset2/office4_12.jpg'
p51
aS'/home/akollaki/Documents/groupProject/gazebo/catkin_ws/src/teleLoc/scripts/dataset2/office2_9.jpg'
p52
aS'/home/akollaki/Documents/groupProject/gazebo/catkin_ws/src/teleLoc/scripts/dataset2/officeBoss_5.jpg'
p53
aS'/home/akollaki/Documents/groupProject/gazebo/catkin_ws/src/teleLoc/scripts/dataset2/office4_14.jpg'
p54
aS'/home/akollaki/Documents/groupProject/gazebo/catkin_ws/src/teleLoc/scripts/dataset2/office3_10.jpg'
p55
aS'/home/akollaki/Documents/groupProject/gazebo/catkin_ws/src/teleLoc/scripts/dataset2/livingRoom_6.jpg'
p56
aS'/home/akollaki/Documents/groupProject/gazebo/catkin_ws/src/teleLoc/scripts/dataset2/livingRoom_2.jpg'
p57
aS'/home/akollaki/Documents/groupProject/gazebo/catkin_ws/src/teleLoc/scripts/dataset2/office4_1.jpg'
p58
aS'/home/akollaki/Documents/groupProject/gazebo/catkin_ws/src/teleLoc/scripts/dataset2/office2_2.jpg'
p59
aS'/home/akollaki/Documents/groupProject/gazebo/catkin_ws/src/teleLoc/scripts/dataset2/officeBoss_9.jpg'
p60
a.