(lp0
S'dataset/officeBoss_2.jpg'
p1
aS'dataset/office3_train1.jpg'
p2
aS'dataset/office3_3.jpg'
p3
aS'dataset/officeBoss_3.jpg'
p4
aS'dataset/office4_11.jpg'
p5
aS'dataset/office2_7.jpg'
p6
aS'dataset/office4_8.jpg'
p7
aS'dataset/officeBoss_4.jpg'
p8
aS'dataset/office4_13.jpg'
p9
aS'dataset/office4_6.jpg'
p10
aS'dataset/office4_7.jpg'
p11
aS'dataset/office2_1.jpg'
p12
aS'dataset/office4_2.jpg'
p13
aS'dataset/office4_10.jpg'
p14
aS'dataset/office3_train2.jpg'
p15
aS'dataset/office2_4.jpg'
p16
aS'dataset/office4_5.jpg'
p17
aS'dataset/officeBoss_1.jpg'
p18
aS'dataset/officeBoss_8.jpg'
p19
aS'dataset/office2_10.jpg'
p20
aS'dataset/officeBoss_6.jpg'
p21
aS'dataset/office2_5.jpg'
p22
aS'dataset/office3_2.jpg'
p23
aS'dataset/officeBoss_7.jpg'
p24
aS'dataset/office4_3.jpg'
p25
aS'dataset/office3_6.jpg'
p26
aS'dataset/office2_6.jpg'
p27
aS'dataset/office3_1.jpg'
p28
aS'dataset/officeBoss_10.jpg'
p29
aS'dataset/office3_5.jpg'
p30
aS'dataset/office4_4.jpg'
p31
aS'dataset/office3_4.jpg'
p32
aS'dataset/office4_9.jpg'
p33
aS'dataset/office2_8.jpg'
p34
aS'dataset/office4_12.jpg'
p35
aS'dataset/office2_9.jpg'
p36
aS'dataset/officeBoss_5.jpg'
p37
aS'dataset/office4_14.jpg'
p38
aS'dataset/office4_1.jpg'
p39
aS'dataset/officeBoss_9.jpg'
p40
a.